target datalayout = "e-m:e-p270:32:32-p271:32:32-p272:64:64-i64:64-i128:128-f80:128-n8:16:32:64-S128"
target triple = "x86_64-pc-linux-gnu"

%struct.crypto_ex_data_st = type { ptr, ptr }
%struct.x509_store_ctx_st = type { ptr, ptr, ptr, ptr, ptr, ptr, ptr, ptr, ptr, ptr, ptr, ptr, ptr, ptr, ptr, ptr, ptr, ptr, i32, i32, ptr, ptr, i32, i32, i32, ptr, ptr, ptr, i32, i32, ptr, %struct.crypto_ex_data_st, ptr, i32, ptr, ptr, ptr }
%struct.X509_VERIFY_PARAM_st = type { ptr, i64, i32, i64, i32, i32, i32, i32, ptr, ptr, i32, ptr, ptr, i64, ptr, i64 }

@.str = private unnamed_addr constant [34 x i8] c"../openssl/crypto/x509/x509_vfy.c\00", align 1

; Function Attrs: inlinehint nounwind uwtable
define internal ptr @ossl_check_const_X509_sk_type(ptr noundef %0) #3 {
  %2 = alloca ptr, align 8
  store ptr %0, ptr %2, align 8, !tbaa !60
  %3 = load ptr, ptr %2, align 8, !tbaa !60
  ret ptr %3
}

; Function Attrs: nounwind uwtable
define internal i32 @verify_cb_cert(ptr noundef %0, ptr noundef %1, i32 noundef %2, i32 noundef %3) #0 {
  %5 = alloca ptr, align 8
  %6 = alloca ptr, align 8
  %7 = alloca i32, align 4
  %8 = alloca i32, align 4
  store ptr %0, ptr %5, align 8, !tbaa !40
  store ptr %1, ptr %6, align 8, !tbaa !3
  store i32 %2, ptr %7, align 4, !tbaa !8
  store i32 %3, ptr %8, align 4, !tbaa !8
  %9 = load i32, ptr %7, align 4, !tbaa !8
  %10 = icmp slt i32 %9, 0
  br i1 %10, label %11, label %15

11:                                               ; preds = %4
  %12 = load ptr, ptr %5, align 8, !tbaa !40
  %13 = getelementptr inbounds nuw %struct.x509_store_ctx_st, ptr %12, i32 0, i32 23
  %14 = load i32, ptr %13, align 4, !tbaa !86
  store i32 %14, ptr %7, align 4, !tbaa !8
  br label %19

15:                                               ; preds = %4
  %16 = load i32, ptr %7, align 4, !tbaa !8
  %17 = load ptr, ptr %5, align 8, !tbaa !40
  %18 = getelementptr inbounds nuw %struct.x509_store_ctx_st, ptr %17, i32 0, i32 23
  store i32 %16, ptr %18, align 4, !tbaa !86
  br label %19

19:                                               ; preds = %15, %11
  %20 = load ptr, ptr %6, align 8, !tbaa !3
  %21 = icmp ne ptr %20, null
  br i1 %21, label %22, label %24

22:                                               ; preds = %19
  %23 = load ptr, ptr %6, align 8, !tbaa !3
  br label %31

24:                                               ; preds = %19
  %25 = load ptr, ptr %5, align 8, !tbaa !40
  %26 = getelementptr inbounds nuw %struct.x509_store_ctx_st, ptr %25, i32 0, i32 20
  %27 = load ptr, ptr %26, align 8, !tbaa !61
  %28 = call ptr @ossl_check_const_X509_sk_type(ptr noundef %27)
  %29 = load i32, ptr %7, align 4, !tbaa !8
  %30 = call ptr @OPENSSL_sk_value(ptr noundef %28, i32 noundef %29)
  br label %31

31:                                               ; preds = %24, %22
  %32 = phi ptr [ %23, %22 ], [ %30, %24 ]
  %33 = load ptr, ptr %5, align 8, !tbaa !40
  %34 = getelementptr inbounds nuw %struct.x509_store_ctx_st, ptr %33, i32 0, i32 25
  store ptr %32, ptr %34, align 8, !tbaa !87
  %35 = load i32, ptr %8, align 4, !tbaa !8
  %36 = icmp ne i32 %35, 0
  br i1 %36, label %37, label %41

37:                                               ; preds = %31
  %38 = load i32, ptr %8, align 4, !tbaa !8
  %39 = load ptr, ptr %5, align 8, !tbaa !40
  %40 = getelementptr inbounds nuw %struct.x509_store_ctx_st, ptr %39, i32 0, i32 24
  store i32 %38, ptr %40, align 8, !tbaa !53
  br label %41

41:                                               ; preds = %37, %31
  %42 = load ptr, ptr %5, align 8, !tbaa !40
  %43 = getelementptr inbounds nuw %struct.x509_store_ctx_st, ptr %42, i32 0, i32 7
  %44 = load ptr, ptr %43, align 8, !tbaa !88
  %45 = load ptr, ptr %5, align 8, !tbaa !40
  %46 = call i32 %44(i32 noundef 0, ptr noundef %45)
  ret i32 %46
}

; Function Attrs: inlinehint nounwind uwtable
define internal ptr @ossl_check_const_OPENSSL_STRING_sk_type(ptr noundef %0) #3 {
  %2 = alloca ptr, align 8
  store ptr %0, ptr %2, align 8, !tbaa !213
  %3 = load ptr, ptr %2, align 8, !tbaa !213
  ret ptr %3
}

; Function Attrs: nounwind uwtable
define internal i32 @check_id_error(ptr noundef %0, i32 noundef %1) #0 {
  %3 = alloca ptr, align 8
  %4 = alloca i32, align 4
  store ptr %0, ptr %3, align 8, !tbaa !40
  store i32 %1, ptr %4, align 4, !tbaa !8
  %5 = load ptr, ptr %3, align 8, !tbaa !40
  %6 = load ptr, ptr %3, align 8, !tbaa !40
  %7 = getelementptr inbounds nuw %struct.x509_store_ctx_st, ptr %6, i32 0, i32 1
  %8 = load ptr, ptr %7, align 8, !tbaa !51
  %9 = load i32, ptr %4, align 4, !tbaa !8
  %10 = call i32 @verify_cb_cert(ptr noundef %5, ptr noundef %8, i32 noundef 0, i32 noundef %9)
  ret i32 %10
}

; Function Attrs: nounwind uwtable
define internal i32 @check_hosts(ptr noundef %0, ptr noundef %1) #0 {
  %3 = alloca i32, align 4
  %4 = alloca ptr, align 8
  %5 = alloca ptr, align 8
  %6 = alloca i32, align 4
  %7 = alloca i32, align 4
  %8 = alloca ptr, align 8
  %9 = alloca i32, align 4
  store ptr %0, ptr %4, align 8, !tbaa !3
  store ptr %1, ptr %5, align 8, !tbaa !90
  call void @llvm.lifetime.start.p0(i64 4, ptr %6) #8
  call void @llvm.lifetime.start.p0(i64 4, ptr %7) #8
  %10 = load ptr, ptr %5, align 8, !tbaa !90
  %11 = getelementptr inbounds nuw %struct.X509_VERIFY_PARAM_st, ptr %10, i32 0, i32 9
  %12 = load ptr, ptr %11, align 8, !tbaa !203
  %13 = call ptr @ossl_check_const_OPENSSL_STRING_sk_type(ptr noundef %12)
  %14 = call i32 @OPENSSL_sk_num(ptr noundef %13)
  store i32 %14, ptr %7, align 4, !tbaa !8
  call void @llvm.lifetime.start.p0(i64 8, ptr %8) #8
  %15 = load ptr, ptr %5, align 8, !tbaa !90
  %16 = getelementptr inbounds nuw %struct.X509_VERIFY_PARAM_st, ptr %15, i32 0, i32 11
  %17 = load ptr, ptr %16, align 8, !tbaa !210
  %18 = icmp ne ptr %17, null
  br i1 %18, label %19, label %25

19:                                               ; preds = %2
  %20 = load ptr, ptr %5, align 8, !tbaa !90
  %21 = getelementptr inbounds nuw %struct.X509_VERIFY_PARAM_st, ptr %20, i32 0, i32 11
  %22 = load ptr, ptr %21, align 8, !tbaa !210
  call void @CRYPTO_free(ptr noundef %22, ptr noundef @.str, i32 noundef 906)
  %23 = load ptr, ptr %5, align 8, !tbaa !90
  %24 = getelementptr inbounds nuw %struct.X509_VERIFY_PARAM_st, ptr %23, i32 0, i32 11
  store ptr null, ptr %24, align 8, !tbaa !210
  br label %25

25:                                               ; preds = %19, %2
  store i32 0, ptr %6, align 4, !tbaa !8
  br label %26

26:                                               ; preds = %48, %25
  %27 = load i32, ptr %6, align 4, !tbaa !8
  %28 = load i32, ptr %7, align 4, !tbaa !8
  %29 = icmp slt i32 %27, %28
  br i1 %29, label %30, label %51

30:                                               ; preds = %26
  %31 = load ptr, ptr %5, align 8, !tbaa !90
  %32 = getelementptr inbounds nuw %struct.X509_VERIFY_PARAM_st, ptr %31, i32 0, i32 9
  %33 = load ptr, ptr %32, align 8, !tbaa !203
  %34 = call ptr @ossl_check_const_OPENSSL_STRING_sk_type(ptr noundef %33)
  %35 = load i32, ptr %6, align 4, !tbaa !8
  %36 = call ptr @OPENSSL_sk_value(ptr noundef %34, i32 noundef %35)
  store ptr %36, ptr %8, align 8, !tbaa !127
  %37 = load ptr, ptr %4, align 8, !tbaa !3
  %38 = load ptr, ptr %8, align 8, !tbaa !127
  %39 = load ptr, ptr %5, align 8, !tbaa !90
  %40 = getelementptr inbounds nuw %struct.X509_VERIFY_PARAM_st, ptr %39, i32 0, i32 10
  %41 = load i32, ptr %40, align 8, !tbaa !211
  %42 = load ptr, ptr %5, align 8, !tbaa !90
  %43 = getelementptr inbounds nuw %struct.X509_VERIFY_PARAM_st, ptr %42, i32 0, i32 11
  %44 = call i32 @X509_check_host(ptr noundef %37, ptr noundef %38, i64 noundef 0, i32 noundef %41, ptr noundef %43)
  %45 = icmp sgt i32 %44, 0
  br i1 %45, label %46, label %47

46:                                               ; preds = %30
  store i32 1, ptr %3, align 4
  store i32 1, ptr %9, align 4
  br label %55

47:                                               ; preds = %30
  br label %48

48:                                               ; preds = %47
  %49 = load i32, ptr %6, align 4, !tbaa !8
  %50 = add nsw i32 %49, 1
  store i32 %50, ptr %6, align 4, !tbaa !8
  br label %26, !llvm.loop !212

51:                                               ; preds = %26
  %52 = load i32, ptr %7, align 4, !tbaa !8
  %53 = icmp eq i32 %52, 0
  %54 = zext i1 %53 to i32
  store i32 %54, ptr %3, align 4
  store i32 1, ptr %9, align 4
  br label %55

55:                                               ; preds = %51, %46
  call void @llvm.lifetime.end.p0(i64 8, ptr %8) #8
  call void @llvm.lifetime.end.p0(i64 4, ptr %7) #8
  call void @llvm.lifetime.end.p0(i64 4, ptr %6) #8
  %56 = load i32, ptr %3, align 4
  ret i32 %56
}

; Function Attrs: nounwind uwtable
define internal i32 @check_id(ptr noundef %0) #0 {
  %2 = alloca i32, align 4
  %3 = alloca ptr, align 8
  %4 = alloca ptr, align 8
  %5 = alloca ptr, align 8
  %6 = alloca i32, align 4
  store ptr %0, ptr %3, align 8, !tbaa !40
  call void @llvm.lifetime.start.p0(i64 8, ptr %4) #8
  %7 = load ptr, ptr %3, align 8, !tbaa !40
  %8 = getelementptr inbounds nuw %struct.x509_store_ctx_st, ptr %7, i32 0, i32 4
  %9 = load ptr, ptr %8, align 8, !tbaa !72
  store ptr %9, ptr %4, align 8, !tbaa !90
  call void @llvm.lifetime.start.p0(i64 8, ptr %5) #8
  %10 = load ptr, ptr %3, align 8, !tbaa !40
  %11 = getelementptr inbounds nuw %struct.x509_store_ctx_st, ptr %10, i32 0, i32 1
  %12 = load ptr, ptr %11, align 8, !tbaa !51
  store ptr %12, ptr %5, align 8, !tbaa !3
  %13 = load ptr, ptr %4, align 8, !tbaa !90
  %14 = getelementptr inbounds nuw %struct.X509_VERIFY_PARAM_st, ptr %13, i32 0, i32 9
  %15 = load ptr, ptr %14, align 8, !tbaa !203
  %16 = icmp ne ptr %15, null
  br i1 %16, label %17, label %28

17:                                               ; preds = %1
  %18 = load ptr, ptr %5, align 8, !tbaa !3
  %19 = load ptr, ptr %4, align 8, !tbaa !90
  %20 = call i32 @check_hosts(ptr noundef %18, ptr noundef %19)
  %21 = icmp sle i32 %20, 0
  br i1 %21, label %22, label %28

22:                                               ; preds = %17
  %23 = load ptr, ptr %3, align 8, !tbaa !40
  %24 = call i32 @check_id_error(ptr noundef %23, i32 noundef 62)
  %25 = icmp ne i32 %24, 0
  br i1 %25, label %27, label %26

26:                                               ; preds = %22
  store i32 0, ptr %2, align 4
  store i32 1, ptr %6, align 4
  br label %71

27:                                               ; preds = %22
  br label %28

28:                                               ; preds = %27, %17, %1
  %29 = load ptr, ptr %4, align 8, !tbaa !90
  %30 = getelementptr inbounds nuw %struct.X509_VERIFY_PARAM_st, ptr %29, i32 0, i32 12
  %31 = load ptr, ptr %30, align 8, !tbaa !204
  %32 = icmp ne ptr %31, null
  br i1 %32, label %33, label %49

33:                                               ; preds = %28
  %34 = load ptr, ptr %5, align 8, !tbaa !3
  %35 = load ptr, ptr %4, align 8, !tbaa !90
  %36 = getelementptr inbounds nuw %struct.X509_VERIFY_PARAM_st, ptr %35, i32 0, i32 12
  %37 = load ptr, ptr %36, align 8, !tbaa !204
  %38 = load ptr, ptr %4, align 8, !tbaa !90
  %39 = getelementptr inbounds nuw %struct.X509_VERIFY_PARAM_st, ptr %38, i32 0, i32 13
  %40 = load i64, ptr %39, align 8, !tbaa !205
  %41 = call i32 @X509_check_email(ptr noundef %34, ptr noundef %37, i64 noundef %40, i32 noundef 0)
  %42 = icmp sle i32 %41, 0
  br i1 %42, label %43, label %49

43:                                               ; preds = %33
  %44 = load ptr, ptr %3, align 8, !tbaa !40
  %45 = call i32 @check_id_error(ptr noundef %44, i32 noundef 63)
  %46 = icmp ne i32 %45, 0
  br i1 %46, label %48, label %47

47:                                               ; preds = %43
  store i32 0, ptr %2, align 4
  store i32 1, ptr %6, align 4
  br label %71

48:                                               ; preds = %43
  br label %49

49:                                               ; preds = %48, %33, %28
  %50 = load ptr, ptr %4, align 8, !tbaa !90
  %51 = getelementptr inbounds nuw %struct.X509_VERIFY_PARAM_st, ptr %50, i32 0, i32 14
  %52 = load ptr, ptr %51, align 8, !tbaa !206
  %53 = icmp ne ptr %52, null
  br i1 %53, label %54, label %70

54:                                               ; preds = %49
  %55 = load ptr, ptr %5, align 8, !tbaa !3
  %56 = load ptr, ptr %4, align 8, !tbaa !90
  %57 = getelementptr inbounds nuw %struct.X509_VERIFY_PARAM_st, ptr %56, i32 0, i32 14
  %58 = load ptr, ptr %57, align 8, !tbaa !206
  %59 = load ptr, ptr %4, align 8, !tbaa !90
  %60 = getelementptr inbounds nuw %struct.X509_VERIFY_PARAM_st, ptr %59, i32 0, i32 15
  %61 = load i64, ptr %60, align 8, !tbaa !207
  %62 = call i32 @X509_check_ip(ptr noundef %55, ptr noundef %58, i64 noundef %61, i32 noundef 0)
  %63 = icmp sle i32 %62, 0
  br i1 %63, label %64, label %70

64:                                               ; preds = %54
  %65 = load ptr, ptr %3, align 8, !tbaa !40
  %66 = call i32 @check_id_error(ptr noundef %65, i32 noundef 64)
  %67 = icmp ne i32 %66, 0
  br i1 %67, label %69, label %68

68:                                               ; preds = %64
  store i32 0, ptr %2, align 4
  store i32 1, ptr %6, align 4
  br label %71

69:                                               ; preds = %64
  br label %70

70:                                               ; preds = %69, %54, %49
  store i32 1, ptr %2, align 4
  store i32 1, ptr %6, align 4
  br label %71

71:                                               ; preds = %70, %68, %47, %26
  call void @llvm.lifetime.end.p0(i64 8, ptr %5) #8
  call void @llvm.lifetime.end.p0(i64 8, ptr %4) #8
  %72 = load i32, ptr %2, align 4
  ret i32 %72
}