; Function Attrs: nounwind uwtable
define internal fastcc range(i32 0, 2) i32 @check_id(ptr noundef nonnull %0) unnamed_addr #0 {
  %2 = getelementptr inbounds nuw i8, ptr %0, i64 32
  %3 = load ptr, ptr %2, align 8, !tbaa !49
  %4 = getelementptr inbounds nuw i8, ptr %0, i64 8
  %5 = load ptr, ptr %4, align 8, !tbaa !47
  %6 = getelementptr inbounds nuw i8, ptr %3, i64 56
  %7 = load ptr, ptr %6, align 8, !tbaa !198
  %.not = icmp eq ptr %7, null
  br i1 %.not, label %check_hosts.exit.thread, label %8

8:                                                ; preds = %1
  %9 = tail call i32 @OPENSSL_sk_num(ptr noundef nonnull %7) #10
  %10 = getelementptr inbounds nuw i8, ptr %3, i64 72
  %11 = load ptr, ptr %10, align 8, !tbaa !199
  %.not.i = icmp eq ptr %11, null
  br i1 %.not.i, label %13, label %12

12:                                               ; preds = %8
  tail call void @CRYPTO_free(ptr noundef nonnull %11, ptr noundef nonnull @.str, i32 noundef 906) #10
  store ptr null, ptr %10, align 8, !tbaa !199
  br label %13

13:                                               ; preds = %12, %8
  %14 = icmp sgt i32 %9, 0
  br i1 %14, label %.lr.ph.i, label %check_hosts.exit

.lr.ph.i:                                         ; preds = %13
  %15 = getelementptr inbounds nuw i8, ptr %3, i64 64
  br label %18

16:                                               ; preds = %18
  %17 = add nuw nsw i32 %.01417.i, 1
  %exitcond.not.i = icmp eq i32 %17, %9
  br i1 %exitcond.not.i, label %check_hosts.exit.thread30, label %18, !llvm.loop !200

18:                                               ; preds = %16, %.lr.ph.i
  %.01417.i = phi i32 [ 0, %.lr.ph.i ], [ %17, %16 ]
  %19 = load ptr, ptr %6, align 8, !tbaa !198
  %20 = tail call ptr @OPENSSL_sk_value(ptr noundef %19, i32 noundef %.01417.i) #10
  %21 = load i32, ptr %15, align 8, !tbaa !190
  %22 = tail call i32 @X509_check_host(ptr noundef %5, ptr noundef %20, i64 noundef 0, i32 noundef %21, ptr noundef nonnull %10) #10
  %23 = icmp sgt i32 %22, 0
  br i1 %23, label %check_hosts.exit.thread, label %16

check_hosts.exit:                                 ; preds = %13
  %.not32 = icmp eq i32 %9, 0
  br i1 %.not32, label %check_hosts.exit.thread, label %check_hosts.exit.thread30

check_hosts.exit.thread30:                        ; preds = %16, %check_hosts.exit
  %24 = load ptr, ptr %4, align 8, !tbaa !47
  %25 = getelementptr inbounds nuw i8, ptr %0, i64 172
  store i32 0, ptr %25, align 4, !tbaa !55
  %.not.i.i = icmp eq ptr %24, null
  br i1 %.not.i.i, label %26, label %check_id_error.exit

26:                                               ; preds = %check_hosts.exit.thread30
  %27 = getelementptr inbounds nuw i8, ptr %0, i64 152
  %28 = load ptr, ptr %27, align 8, !tbaa !56
  %29 = tail call ptr @OPENSSL_sk_value(ptr noundef %28, i32 noundef 0) #10
  br label %check_id_error.exit

check_id_error.exit:                              ; preds = %check_hosts.exit.thread30, %26
  %30 = phi ptr [ %29, %26 ], [ %24, %check_hosts.exit.thread30 ]
  %31 = getelementptr inbounds nuw i8, ptr %0, i64 184
  store ptr %30, ptr %31, align 8, !tbaa !57
  %32 = getelementptr inbounds nuw i8, ptr %0, i64 176
  store i32 62, ptr %32, align 8, !tbaa !58
  %33 = getelementptr inbounds nuw i8, ptr %0, i64 56
  %34 = load ptr, ptr %33, align 8, !tbaa !59
  %35 = tail call i32 %34(i32 noundef 0, ptr noundef nonnull %0) #10
  %.not19 = icmp eq i32 %35, 0
  br i1 %.not19, label %78, label %check_hosts.exit.thread

check_hosts.exit.thread:                          ; preds = %18, %check_id_error.exit, %check_hosts.exit, %1
  %36 = getelementptr inbounds nuw i8, ptr %3, i64 80
  %37 = load ptr, ptr %36, align 8, !tbaa !201
  %.not20 = icmp eq ptr %37, null
  br i1 %.not20, label %56, label %38

38:                                               ; preds = %check_hosts.exit.thread
  %39 = getelementptr inbounds nuw i8, ptr %3, i64 88
  %40 = load i64, ptr %39, align 8, !tbaa !202
  %41 = tail call i32 @X509_check_email(ptr noundef %5, ptr noundef nonnull %37, i64 noundef %40, i32 noundef 0) #10
  %42 = icmp slt i32 %41, 1
  br i1 %42, label %43, label %56

43:                                               ; preds = %38
  %44 = load ptr, ptr %4, align 8, !tbaa !47
  %45 = getelementptr inbounds nuw i8, ptr %0, i64 172
  store i32 0, ptr %45, align 4, !tbaa !55
  %.not.i.i24 = icmp eq ptr %44, null
  br i1 %.not.i.i24, label %46, label %check_id_error.exit25

46:                                               ; preds = %43
  %47 = getelementptr inbounds nuw i8, ptr %0, i64 152
  %48 = load ptr, ptr %47, align 8, !tbaa !56
  %49 = tail call ptr @OPENSSL_sk_value(ptr noundef %48, i32 noundef 0) #10
  br label %check_id_error.exit25

check_id_error.exit25:                            ; preds = %43, %46
  %50 = phi ptr [ %49, %46 ], [ %44, %43 ]
  %51 = getelementptr inbounds nuw i8, ptr %0, i64 184
  store ptr %50, ptr %51, align 8, !tbaa !57
  %52 = getelementptr inbounds nuw i8, ptr %0, i64 176
  store i32 63, ptr %52, align 8, !tbaa !58
  %53 = getelementptr inbounds nuw i8, ptr %0, i64 56
  %54 = load ptr, ptr %53, align 8, !tbaa !59
  %55 = tail call i32 %54(i32 noundef 0, ptr noundef nonnull %0) #10
  %.not21 = icmp eq i32 %55, 0
  br i1 %.not21, label %78, label %56

56:                                               ; preds = %check_id_error.exit25, %38, %check_hosts.exit.thread
  %57 = getelementptr inbounds nuw i8, ptr %3, i64 96
  %58 = load ptr, ptr %57, align 8, !tbaa !203
  %.not22 = icmp eq ptr %58, null
  br i1 %.not22, label %77, label %59

59:                                               ; preds = %56
  %60 = getelementptr inbounds nuw i8, ptr %3, i64 104
  %61 = load i64, ptr %60, align 8, !tbaa !204
  %62 = tail call i32 @X509_check_ip(ptr noundef %5, ptr noundef nonnull %58, i64 noundef %61, i32 noundef 0) #10
  %63 = icmp slt i32 %62, 1
  br i1 %63, label %64, label %77

64:                                               ; preds = %59
  %65 = load ptr, ptr %4, align 8, !tbaa !47
  %66 = getelementptr inbounds nuw i8, ptr %0, i64 172
  store i32 0, ptr %66, align 4, !tbaa !55
  %.not.i.i26 = icmp eq ptr %65, null
  br i1 %.not.i.i26, label %67, label %check_id_error.exit27

67:                                               ; preds = %64
  %68 = getelementptr inbounds nuw i8, ptr %0, i64 152
  %69 = load ptr, ptr %68, align 8, !tbaa !56
  %70 = tail call ptr @OPENSSL_sk_value(ptr noundef %69, i32 noundef 0) #10
  br label %check_id_error.exit27

check_id_error.exit27:                            ; preds = %64, %67
  %71 = phi ptr [ %70, %67 ], [ %65, %64 ]
  %72 = getelementptr inbounds nuw i8, ptr %0, i64 184
  store ptr %71, ptr %72, align 8, !tbaa !57
  %73 = getelementptr inbounds nuw i8, ptr %0, i64 176
  store i32 64, ptr %73, align 8, !tbaa !58
  %74 = getelementptr inbounds nuw i8, ptr %0, i64 56
  %75 = load ptr, ptr %74, align 8, !tbaa !59
  %76 = tail call i32 %75(i32 noundef 0, ptr noundef nonnull %0) #10
  %.not23 = icmp eq i32 %76, 0
  br i1 %.not23, label %78, label %77

77:                                               ; preds = %check_id_error.exit27, %59, %56
  br label %78

78:                                               ; preds = %check_id_error.exit27, %check_id_error.exit25, %check_id_error.exit, %77
  %.0 = phi i32 [ 1, %77 ], [ 0, %check_id_error.exit ], [ 0, %check_id_error.exit25 ], [ 0, %check_id_error.exit27 ]
  ret i32 %.0
}